
timer.elf:     file format elf32-littlearm


Disassembly of section .text:

50000000 <_start>:
50000000:	e3a00207 	mov	r0, #1879048192	; 0x70000000
50000004:	e3800013 	orr	r0, r0, #19
50000008:	ee0f0f92 	mcr	15, 0, r0, cr15, cr2, {4}
5000000c:	e59f00c4 	ldr	r0, [pc, #196]	; 500000d8 <halt+0x4>
50000010:	e3a01000 	mov	r1, #0
50000014:	e5801000 	str	r1, [r0]
50000018:	ee110f10 	mrc	15, 0, r0, cr1, cr0, {0}
5000001c:	e3800401 	orr	r0, r0, #16777216	; 0x1000000
50000020:	ee010f10 	mcr	15, 0, r0, cr1, cr0, {0}
50000024:	e3a0da02 	mov	sp, #8192	; 0x2000
50000028:	eb00003c 	bl	50000120 <clock_init>
5000002c:	eb000067 	bl	500001d0 <sdram_init>
50000030:	eb0000c9 	bl	5000035c <nand_init>
50000034:	eb00014a 	bl	50000564 <irq_init>
50000038:	e10f0000 	mrs	r0, CPSR
5000003c:	e3c00080 	bic	r0, r0, #128	; 0x80
50000040:	e121f000 	msr	CPSR_c, r0
50000044:	e24f004c 	sub	r0, pc, #76	; 0x4c
50000048:	e59f108c 	ldr	r1, [pc, #140]	; 500000dc <halt+0x8>
5000004c:	e59f208c 	ldr	r2, [pc, #140]	; 500000e0 <halt+0xc>
50000050:	e0422001 	sub	r2, r2, r1
50000054:	e1500001 	cmp	r0, r1
50000058:	0a000002 	beq	50000068 <clean_bss>
5000005c:	eb0000c7 	bl	50000380 <copy2ddr>
50000060:	e3500000 	cmp	r0, #0
50000064:	1a00001a 	bne	500000d4 <halt>

50000068 <clean_bss>:
50000068:	e59f0070 	ldr	r0, [pc, #112]	; 500000e0 <halt+0xc>
5000006c:	e59f1070 	ldr	r1, [pc, #112]	; 500000e4 <halt+0x10>
50000070:	e3a03000 	mov	r3, #0
50000074:	e1500001 	cmp	r0, r1
50000078:	0a000002 	beq	50000088 <on_ddr>

5000007c <clean_loop>:
5000007c:	e4803004 	str	r3, [r0], #4
50000080:	e1500001 	cmp	r0, r1
50000084:	1afffffc 	bne	5000007c <clean_loop>

50000088 <on_ddr>:
50000088:	e59ff058 	ldr	pc, [pc, #88]	; 500000e8 <halt+0x14>

5000008c <asm_timer_irq>:
5000008c:	50000090 	mulpl	r0, r0, r0

50000090 <timer_irq>:
50000090:	e3a0d315 	mov	sp, #1409286144	; 0x54000000
50000094:	e24ee004 	sub	lr, lr, #4
50000098:	e92d5fff 	push	{r0, r1, r2, r3, r4, r5, r6, r7, r8, r9, sl, fp, ip, lr}
5000009c:	eb000162 	bl	5000062c <timer_irq_handler>
500000a0:	e8fd9fff 	ldm	sp!, {r0, r1, r2, r3, r4, r5, r6, r7, r8, r9, sl, fp, ip, pc}^

500000a4 <asm_key_irq>:
500000a4:	500000a8 	andpl	r0, r0, r8, lsr #1

500000a8 <key_irq>:
500000a8:	e3a0d315 	mov	sp, #1409286144	; 0x54000000
500000ac:	e92d0003 	push	{r0, r1}
500000b0:	e59f0034 	ldr	r0, [pc, #52]	; 500000ec <halt+0x18>
500000b4:	e5901000 	ldr	r1, [r0]
500000b8:	e3110008 	tst	r1, #8
500000bc:	059fe02c 	ldreq	lr, [pc, #44]	; 500000f0 <halt+0x1c>
500000c0:	159fe02c 	ldrne	lr, [pc, #44]	; 500000f4 <halt+0x20>
500000c4:	e8bd0003 	pop	{r0, r1}
500000c8:	e92d5fff 	push	{r0, r1, r2, r3, r4, r5, r6, r7, r8, r9, sl, fp, ip, lr}
500000cc:	eb000164 	bl	50000664 <key_irq_handler>
500000d0:	e8fd9fff 	ldm	sp!, {r0, r1, r2, r3, r4, r5, r6, r7, r8, r9, sl, fp, ip, pc}^

500000d4 <halt>:
500000d4:	eafffffe 	b	500000d4 <halt>
500000d8:	7e004000 	cdpvc	0, 0, cr4, cr0, cr0, {0}
500000dc:	50000000 	andpl	r0, r0, r0
500000e0:	50000fa8 	andpl	r0, r0, r8, lsr #31
500000e4:	50000fb4 	undefined instruction 0x50000fb4
500000e8:	50000f48 	andpl	r0, r0, r8, asr #30
500000ec:	7f008924 	svcvc	0x00008924
500000f0:	50000f64 	andpl	r0, r0, r4, ror #30
500000f4:	50000f04 	andpl	r0, r0, r4, lsl #30
500000f8:	00002541 	andeq	r2, r0, r1, asr #10
500000fc:	61656100 	cmnvs	r5, r0, lsl #2
50000100:	01006962 	tsteq	r0, r2, ror #18
50000104:	0000001b 	andeq	r0, r0, fp, lsl r0
50000108:	4d524105 	ldfmie	f4, [r2, #-20]	; 0xffffffec
5000010c:	36373131 	undefined instruction 0x36373131
50000110:	2d465a4a 	vstrcs	s11, [r6, #-296]	; 0xfffffed8
50000114:	09060053 	stmdbeq	r6, {r0, r1, r4, r6}
50000118:	01090108 	tsteq	r9, r8, lsl #2
5000011c:	0000020a 	andeq	r0, r0, sl, lsl #4

50000120 <clock_init>:
50000120:	e59f3048 	ldr	r3, [pc, #72]	; 50000170 <clock_init+0x50>
50000124:	e59f2048 	ldr	r2, [pc, #72]	; 50000174 <clock_init+0x54>
50000128:	e5832000 	str	r2, [r3]
5000012c:	e5832004 	str	r2, [r3, #4]
50000130:	e5832008 	str	r2, [r3, #8]
50000134:	e5932900 	ldr	r2, [r3, #2304]	; 0x900
50000138:	e3c220c0 	bic	r2, r2, #192	; 0xc0
5000013c:	e5832900 	str	r2, [r3, #2304]	; 0x900
50000140:	e5931900 	ldr	r1, [r3, #2304]	; 0x900
50000144:	e59f2024 	ldr	r2, [pc, #36]	; 50000170 <clock_init+0x50>
50000148:	e3110c0f 	tst	r1, #3840	; 0xf00
5000014c:	1afffffb 	bne	50000140 <clock_init+0x20>
50000150:	e3a03c33 	mov	r3, #13056	; 0x3300
50000154:	e5823020 	str	r3, [r2, #32]
50000158:	e59f3018 	ldr	r3, [pc, #24]	; 50000178 <clock_init+0x58>
5000015c:	e582300c 	str	r3, [r2, #12]
50000160:	e5823010 	str	r3, [r2, #16]
50000164:	e3a03003 	mov	r3, #3
50000168:	e582301c 	str	r3, [r2, #28]
5000016c:	e12fff1e 	bx	lr
50000170:	7e00f000 	cdpvc	0, 0, cr15, cr0, cr0, {0}
50000174:	0000ffff 	strdeq	pc, [r0], -pc
50000178:	80fa0301 	rscshi	r0, sl, r1, lsl #6
5000017c:	3a434347 	bcc	510d0ea0 <bss_end+0x10cfeec>
50000180:	74632820 	strbtvc	r2, [r3], #-2080	; 0x820
50000184:	312d676e 	teqcc	sp, lr, ror #14
50000188:	312e382e 	teqcc	lr, lr, lsr #16
5000018c:	2941462d 	stmdbcs	r1, {r0, r2, r3, r5, r9, sl, lr}^
50000190:	352e3420 	strcc	r3, [lr, #-1056]!	; 0x420
50000194:	4100312e 	tstmi	r0, lr, lsr #2
50000198:	00000037 	andeq	r0, r0, r7, lsr r0
5000019c:	62616561 	rsbvs	r6, r1, #406847488	; 0x18400000
500001a0:	2d010069 	stccs	0, cr0, [r1, #-420]	; 0xfffffe5c
500001a4:	05000000 	streq	r0, [r0]
500001a8:	314d5241 	cmpcc	sp, r1, asr #4
500001ac:	4a363731 	bmi	50d8de78 <bss_end+0xd8cec4>
500001b0:	532d465a 	teqpl	sp, #94371840	; 0x5a00000
500001b4:	08090600 	stmdaeq	r9, {r9, sl}
500001b8:	0a010901 	beq	500425c4 <bss_end+0x41610>
500001bc:	14041202 	strne	r1, [r4], #-514	; 0x202
500001c0:	17011501 	strne	r1, [r1, -r1, lsl #10]
500001c4:	19011803 	stmdbne	r1, {r0, r1, fp, ip}
500001c8:	1b021a01 	blne	500869d4 <bss_end+0x85a20>
500001cc:	00041e03 	andeq	r1, r4, r3, lsl #28

500001d0 <sdram_init>:
500001d0:	e59f3138 	ldr	r3, [pc, #312]	; 50000310 <sdram_init+0x140>
500001d4:	e3a02004 	mov	r2, #4
500001d8:	e5832004 	str	r2, [r3, #4]
500001dc:	e59f2130 	ldr	r2, [pc, #304]	; 50000314 <sdram_init+0x144>
500001e0:	e3a01002 	mov	r1, #2
500001e4:	e5832010 	str	r2, [r3, #16]
500001e8:	e3a02006 	mov	r2, #6
500001ec:	e5832014 	str	r2, [r3, #20]
500001f0:	e3a00007 	mov	r0, #7
500001f4:	e3a02001 	mov	r2, #1
500001f8:	e5832018 	str	r2, [r3, #24]
500001fc:	e59fc114 	ldr	ip, [pc, #276]	; 50000318 <sdram_init+0x148>
50000200:	e583101c 	str	r1, [r3, #28]
50000204:	e5830020 	str	r0, [r3, #32]
50000208:	e0800001 	add	r0, r0, r1
5000020c:	e5830024 	str	r0, [r3, #36]	; 0x24
50000210:	e3a00003 	mov	r0, #3
50000214:	e5830028 	str	r0, [r3, #40]	; 0x28
50000218:	e583c02c 	str	ip, [r3, #44]	; 0x2c
5000021c:	e5830030 	str	r0, [r3, #48]	; 0x30
50000220:	e5831034 	str	r1, [r3, #52]	; 0x34
50000224:	e5831038 	str	r1, [r3, #56]	; 0x38
50000228:	e583203c 	str	r2, [r3, #60]	; 0x3c
5000022c:	e5832040 	str	r2, [r3, #64]	; 0x40
50000230:	e2822011 	add	r2, r2, #17
50000234:	e5832044 	str	r2, [r3, #68]	; 0x44
50000238:	e5832048 	str	r2, [r3, #72]	; 0x48
5000023c:	e593200c 	ldr	r2, [r3, #12]
50000240:	e3c22007 	bic	r2, r2, #7
50000244:	e1822001 	orr	r2, r2, r1
50000248:	e583200c 	str	r2, [r3, #12]
5000024c:	e593200c 	ldr	r2, [r3, #12]
50000250:	e3a01701 	mov	r1, #262144	; 0x40000
50000254:	e3c22038 	bic	r2, r2, #56	; 0x38
50000258:	e3822018 	orr	r2, r2, #24
5000025c:	e583200c 	str	r2, [r3, #12]
50000260:	e593200c 	ldr	r2, [r3, #12]
50000264:	e3c22040 	bic	r2, r2, #64	; 0x40
50000268:	e583200c 	str	r2, [r3, #12]
5000026c:	e593200c 	ldr	r2, [r3, #12]
50000270:	e3c2290e 	bic	r2, r2, #229376	; 0x38000
50000274:	e3822801 	orr	r2, r2, #65536	; 0x10000
50000278:	e583200c 	str	r2, [r3, #12]
5000027c:	e593204c 	ldr	r2, [r3, #76]	; 0x4c
50000280:	e3c2200f 	bic	r2, r2, #15
50000284:	e3822005 	orr	r2, r2, #5
50000288:	e583204c 	str	r2, [r3, #76]	; 0x4c
5000028c:	e593204c 	ldr	r2, [r3, #76]	; 0x4c
50000290:	e3c220c0 	bic	r2, r2, #192	; 0xc0
50000294:	e3822040 	orr	r2, r2, #64	; 0x40
50000298:	e583204c 	str	r2, [r3, #76]	; 0x4c
5000029c:	e593204c 	ldr	r2, [r3, #76]	; 0x4c
500002a0:	e3c22c07 	bic	r2, r2, #1792	; 0x700
500002a4:	e3822c03 	orr	r2, r2, #768	; 0x300
500002a8:	e583204c 	str	r2, [r3, #76]	; 0x4c
500002ac:	e593204c 	ldr	r2, [r3, #76]	; 0x4c
500002b0:	e3c22b06 	bic	r2, r2, #6144	; 0x1800
500002b4:	e3822b02 	orr	r2, r2, #2048	; 0x800
500002b8:	e583204c 	str	r2, [r3, #76]	; 0x4c
500002bc:	e5932200 	ldr	r2, [r3, #512]	; 0x200
500002c0:	e3822801 	orr	r2, r2, #65536	; 0x10000
500002c4:	e5832200 	str	r2, [r3, #512]	; 0x200
500002c8:	e3a02703 	mov	r2, #786432	; 0xc0000
500002cc:	e5832008 	str	r2, [r3, #8]
500002d0:	e2422703 	sub	r2, r2, #786432	; 0xc0000
500002d4:	e5832008 	str	r2, [r3, #8]
500002d8:	e5831008 	str	r1, [r3, #8]
500002dc:	e5831008 	str	r1, [r3, #8]
500002e0:	e2811806 	add	r1, r1, #393216	; 0x60000
500002e4:	e5831008 	str	r1, [r3, #8]
500002e8:	e59f102c 	ldr	r1, [pc, #44]	; 5000031c <sdram_init+0x14c>
500002ec:	e5831008 	str	r1, [r3, #8]
500002f0:	e59f1028 	ldr	r1, [pc, #40]	; 50000320 <sdram_init+0x150>
500002f4:	e5812120 	str	r2, [r1, #288]	; 0x120
500002f8:	e5832004 	str	r2, [r3, #4]
500002fc:	e5932000 	ldr	r2, [r3]
50000300:	e2022003 	and	r2, r2, #3
50000304:	e3520001 	cmp	r2, #1
50000308:	1afffffb 	bne	500002fc <sdram_init+0x12c>
5000030c:	e12fff1e 	bx	lr
50000310:	7e001000 	cdpvc	0, 0, cr1, cr0, cr0, {0}
50000314:	0000045b 	andeq	r0, r0, fp, asr r4
50000318:	0000010b 	andeq	r0, r0, fp, lsl #2
5000031c:	00080032 	andeq	r0, r8, r2, lsr r0
50000320:	7e00f000 	cdpvc	0, 0, cr15, cr0, cr0, {0}
50000324:	00003741 	andeq	r3, r0, r1, asr #14
50000328:	61656100 	cmnvs	r5, r0, lsl #2
5000032c:	01006962 	tsteq	r0, r2, ror #18
50000330:	0000002d 	andeq	r0, r0, sp, lsr #32
50000334:	4d524105 	ldfmie	f4, [r2, #-20]	; 0xffffffec
50000338:	36373131 	undefined instruction 0x36373131
5000033c:	2d465a4a 	vstrcs	s11, [r6, #-296]	; 0xfffffed8
50000340:	09060053 	stmdbeq	r6, {r0, r1, r4, r6}
50000344:	01090108 	tsteq	r9, r8, lsl #2
50000348:	0412020a 	ldreq	r0, [r2], #-522	; 0x20a
5000034c:	01150114 	tsteq	r5, r4, lsl r1
50000350:	01180317 	tsteq	r8, r7, lsl r3
50000354:	021a0119 	andseq	r0, sl, #1073741830	; 0x40000006
50000358:	041e031b 	ldreq	r0, [lr], #-795	; 0x31b

5000035c <nand_init>:
5000035c:	e59f3014 	ldr	r3, [pc, #20]	; 50000378 <nand_init+0x1c>
50000360:	e59f2014 	ldr	r2, [pc, #20]	; 5000037c <nand_init+0x20>
50000364:	e5832000 	str	r2, [r3]
50000368:	e5932004 	ldr	r2, [r3, #4]
5000036c:	e3822003 	orr	r2, r2, #3
50000370:	e5832004 	str	r2, [r3, #4]
50000374:	e12fff1e 	bx	lr
50000378:	70200000 	eorvc	r0, r0, r0
5000037c:	00002f70 	andeq	r2, r0, r0, ror pc

50000380 <copy2ddr>:
50000380:	e59f30b4 	ldr	r3, [pc, #180]	; 5000043c <copy2ddr+0xbc>
50000384:	e3c22e7f 	bic	r2, r2, #2032	; 0x7f0
50000388:	e5930004 	ldr	r0, [r3, #4]
5000038c:	e3c2200f 	bic	r2, r2, #15
50000390:	e2822b02 	add	r2, r2, #2048	; 0x800
50000394:	e92d40f0 	push	{r4, r5, r6, r7, lr}
50000398:	e3c00002 	bic	r0, r0, #2
5000039c:	e1a065a2 	lsr	r6, r2, #11
500003a0:	e3a02000 	mov	r2, #0
500003a4:	e5830004 	str	r0, [r3, #4]
500003a8:	e1a0c002 	mov	ip, r2
500003ac:	e3a05030 	mov	r5, #48	; 0x30
500003b0:	e1a04003 	mov	r4, r3
500003b4:	ea00001c 	b	5000042c <copy2ddr+0xac>
500003b8:	e5930004 	ldr	r0, [r3, #4]
500003bc:	e3c00002 	bic	r0, r0, #2
500003c0:	e5830004 	str	r0, [r3, #4]
500003c4:	e20200ff 	and	r0, r2, #255	; 0xff
500003c8:	e583c008 	str	ip, [r3, #8]
500003cc:	e583c00c 	str	ip, [r3, #12]
500003d0:	e583c00c 	str	ip, [r3, #12]
500003d4:	e583000c 	str	r0, [r3, #12]
500003d8:	e1a00422 	lsr	r0, r2, #8
500003dc:	e20000ff 	and	r0, r0, #255	; 0xff
500003e0:	e583000c 	str	r0, [r3, #12]
500003e4:	e1a00822 	lsr	r0, r2, #16
500003e8:	e20000ff 	and	r0, r0, #255	; 0xff
500003ec:	e583000c 	str	r0, [r3, #12]
500003f0:	e5835008 	str	r5, [r3, #8]
500003f4:	e5930028 	ldr	r0, [r3, #40]	; 0x28
500003f8:	e3100001 	tst	r0, #1
500003fc:	0afffffc 	beq	500003f4 <copy2ddr+0x74>
50000400:	e3a00000 	mov	r0, #0
50000404:	e5d37010 	ldrb	r7, [r3, #16]
50000408:	e7c17000 	strb	r7, [r1, r0]
5000040c:	e2800001 	add	r0, r0, #1
50000410:	e3500b02 	cmp	r0, #2048	; 0x800
50000414:	1afffffa 	bne	50000404 <copy2ddr+0x84>
50000418:	e5940004 	ldr	r0, [r4, #4]
5000041c:	e2822001 	add	r2, r2, #1
50000420:	e3800002 	orr	r0, r0, #2
50000424:	e5840004 	str	r0, [r4, #4]
50000428:	e2811b02 	add	r1, r1, #2048	; 0x800
5000042c:	e1520006 	cmp	r2, r6
50000430:	1affffe0 	bne	500003b8 <copy2ddr+0x38>
50000434:	e3a00000 	mov	r0, #0
50000438:	e8bd80f0 	pop	{r4, r5, r6, r7, pc}
5000043c:	70200000 	eorvc	r0, r0, r0
50000440:	00003741 	andeq	r3, r0, r1, asr #14
50000444:	61656100 	cmnvs	r5, r0, lsl #2
50000448:	01006962 	tsteq	r0, r2, ror #18
5000044c:	0000002d 	andeq	r0, r0, sp, lsr #32
50000450:	4d524105 	ldfmie	f4, [r2, #-20]	; 0xffffffec
50000454:	36373131 	undefined instruction 0x36373131
50000458:	2d465a4a 	vstrcs	s11, [r6, #-296]	; 0xfffffed8
5000045c:	09060053 	stmdbeq	r6, {r0, r1, r4, r6}
50000460:	01090108 	tsteq	r9, r8, lsl #2
50000464:	0412020a 	ldreq	r0, [r2], #-522	; 0x20a
50000468:	01150114 	tsteq	r5, r4, lsl r1
5000046c:	01180317 	tsteq	r8, r7, lsl r3
50000470:	021a0119 	andseq	r0, sl, #1073741830	; 0x40000006
50000474:	041e031b 	ldreq	r0, [lr], #-795	; 0x31b

50000478 <init_uart>:
50000478:	e59f3048 	ldr	r3, [pc, #72]	; 500004c8 <init_uart+0x50>
5000047c:	e3a01000 	mov	r1, #0
50000480:	e5932000 	ldr	r2, [r3]
50000484:	e3c220ff 	bic	r2, r2, #255	; 0xff
50000488:	e5832000 	str	r2, [r3]
5000048c:	e5932000 	ldr	r2, [r3]
50000490:	e3822022 	orr	r2, r2, #34	; 0x22
50000494:	e5832000 	str	r2, [r3]
50000498:	e2433a03 	sub	r3, r3, #12288	; 0x3000
5000049c:	e3a02003 	mov	r2, #3
500004a0:	e5832000 	str	r2, [r3]
500004a4:	e2822002 	add	r2, r2, #2
500004a8:	e5832004 	str	r2, [r3, #4]
500004ac:	e3a02001 	mov	r2, #1
500004b0:	e5832008 	str	r2, [r3, #8]
500004b4:	e583100c 	str	r1, [r3, #12]
500004b8:	e3a01023 	mov	r1, #35	; 0x23
500004bc:	e1c312b8 	strh	r1, [r3, #40]	; 0x28
500004c0:	e1c322bc 	strh	r2, [r3, #44]	; 0x2c
500004c4:	e12fff1e 	bx	lr
500004c8:	7f008000 	svcvc	0x00008000

500004cc <getc>:
500004cc:	e59f3014 	ldr	r3, [pc, #20]	; 500004e8 <getc+0x1c>
500004d0:	e5932018 	ldr	r2, [r3, #24]
500004d4:	e312007f 	tst	r2, #127	; 0x7f
500004d8:	0afffffc 	beq	500004d0 <getc+0x4>
500004dc:	e59f3004 	ldr	r3, [pc, #4]	; 500004e8 <getc+0x1c>
500004e0:	e5d30024 	ldrb	r0, [r3, #36]	; 0x24
500004e4:	e12fff1e 	bx	lr
500004e8:	7f005000 	svcvc	0x00005000

500004ec <putc>:
500004ec:	e59f3014 	ldr	r3, [pc, #20]	; 50000508 <putc+0x1c>
500004f0:	e5932018 	ldr	r2, [r3, #24]
500004f4:	e3120901 	tst	r2, #16384	; 0x4000
500004f8:	1afffffc 	bne	500004f0 <putc+0x4>
500004fc:	e59f3004 	ldr	r3, [pc, #4]	; 50000508 <putc+0x1c>
50000500:	e5c30020 	strb	r0, [r3, #32]
50000504:	e12fff1e 	bx	lr
50000508:	7f005000 	svcvc	0x00005000

5000050c <timer_init>:
5000050c:	e59f304c 	ldr	r3, [pc, #76]	; 50000560 <timer_init+0x54>
50000510:	e92d4010 	push	{r4, lr}
50000514:	e593c000 	ldr	ip, [r3]
50000518:	e3a0400f 	mov	r4, #15
5000051c:	e3ccc8ff 	bic	ip, ip, #16711680	; 0xff0000
50000520:	e3ccc0ff 	bic	ip, ip, #255	; 0xff
50000524:	e181100c 	orr	r1, r1, ip
50000528:	e5831000 	str	r1, [r3]
5000052c:	e593c004 	ldr	ip, [r3, #4]
50000530:	e1a01100 	lsl	r1, r0, #2
50000534:	e3ccc601 	bic	ip, ip, #1048576	; 0x100000
50000538:	e1ccc114 	bic	ip, ip, r4, lsl r1
5000053c:	e18c1112 	orr	r1, ip, r2, lsl r1
50000540:	e5831004 	str	r1, [r3, #4]
50000544:	e3a01001 	mov	r1, #1
50000548:	e1a00011 	lsl	r0, r1, r0
5000054c:	e5932044 	ldr	r2, [r3, #68]	; 0x44
50000550:	e1c22000 	bic	r2, r2, r0
50000554:	e1820000 	orr	r0, r2, r0
50000558:	e5830044 	str	r0, [r3, #68]	; 0x44
5000055c:	e8bd8010 	pop	{r4, pc}
50000560:	7f006000 	svcvc	0x00006000

50000564 <irq_init>:
50000564:	e92d4008 	push	{r3, lr}
50000568:	e3a01041 	mov	r1, #65	; 0x41
5000056c:	e3a02004 	mov	r2, #4
50000570:	e3a00000 	mov	r0, #0
50000574:	ebffffe4 	bl	5000050c <timer_init>
50000578:	e59f2098 	ldr	r2, [pc, #152]	; 50000618 <irq_init+0xb4>
5000057c:	e5923010 	ldr	r3, [r2, #16]
50000580:	e3833502 	orr	r3, r3, #8388608	; 0x800000
50000584:	e5823010 	str	r3, [r2, #16]
50000588:	e3a03000 	mov	r3, #0
5000058c:	e582300c 	str	r3, [r2, #12]
50000590:	e59f3084 	ldr	r3, [pc, #132]	; 5000061c <irq_init+0xb8>
50000594:	e582315c 	str	r3, [r2, #348]	; 0x15c
50000598:	e59f3080 	ldr	r3, [pc, #128]	; 50000620 <irq_init+0xbc>
5000059c:	e5931830 	ldr	r1, [r3, #2096]	; 0x830
500005a0:	e3c110ff 	bic	r1, r1, #255	; 0xff
500005a4:	e5831830 	str	r1, [r3, #2096]	; 0x830
500005a8:	e5931830 	ldr	r1, [r3, #2096]	; 0x830
500005ac:	e38110aa 	orr	r1, r1, #170	; 0xaa
500005b0:	e5831830 	str	r1, [r3, #2096]	; 0x830
500005b4:	e5931900 	ldr	r1, [r3, #2304]	; 0x900
500005b8:	e3c110ff 	bic	r1, r1, #255	; 0xff
500005bc:	e5831900 	str	r1, [r3, #2304]	; 0x900
500005c0:	e5931900 	ldr	r1, [r3, #2304]	; 0x900
500005c4:	e3811033 	orr	r1, r1, #51	; 0x33
500005c8:	e5831900 	str	r1, [r3, #2304]	; 0x900
500005cc:	e5931920 	ldr	r1, [r3, #2336]	; 0x920
500005d0:	e3c1100f 	bic	r1, r1, #15
500005d4:	e5831920 	str	r1, [r3, #2336]	; 0x920
500005d8:	e5921010 	ldr	r1, [r2, #16]
500005dc:	e3811003 	orr	r1, r1, #3
500005e0:	e5821010 	str	r1, [r2, #16]
500005e4:	e59f1038 	ldr	r1, [pc, #56]	; 50000624 <irq_init+0xc0>
500005e8:	e5821100 	str	r1, [r2, #256]	; 0x100
500005ec:	e59f2034 	ldr	r2, [pc, #52]	; 50000628 <irq_init+0xc4>
500005f0:	e5832800 	str	r2, [r3, #2048]	; 0x800
500005f4:	e59320a0 	ldr	r2, [r3, #160]	; 0xa0
500005f8:	e3822201 	orr	r2, r2, #268435456	; 0x10000000
500005fc:	e58320a0 	str	r2, [r3, #160]	; 0xa0
50000600:	e59320a0 	ldr	r2, [r3, #160]	; 0xa0
50000604:	e3c22202 	bic	r2, r2, #536870912	; 0x20000000
50000608:	e58320a0 	str	r2, [r3, #160]	; 0xa0
5000060c:	e3a020ff 	mov	r2, #255	; 0xff
50000610:	e5832808 	str	r2, [r3, #2056]	; 0x808
50000614:	e8bd8008 	pop	{r3, pc}
50000618:	71200000 	teqvc	r0, r0
5000061c:	5000008c 	andpl	r0, r0, ip, lsl #1
50000620:	7f008000 	svcvc	0x00008000
50000624:	500000a4 	andpl	r0, r0, r4, lsr #1
50000628:	11110000 	tstne	r1, r0

5000062c <timer_irq_handler>:
5000062c:	e59f3024 	ldr	r3, [pc, #36]	; 50000658 <timer_irq_handler+0x2c>
50000630:	e5932000 	ldr	r2, [r3]
50000634:	e2822001 	add	r2, r2, #1
50000638:	e5832000 	str	r2, [r3]
5000063c:	e59f3018 	ldr	r3, [pc, #24]	; 5000065c <timer_irq_handler+0x30>
50000640:	e5932044 	ldr	r2, [r3, #68]	; 0x44
50000644:	e5832044 	str	r2, [r3, #68]	; 0x44
50000648:	e59f3010 	ldr	r3, [pc, #16]	; 50000660 <timer_irq_handler+0x34>
5000064c:	e3a02000 	mov	r2, #0
50000650:	e5832f00 	str	r2, [r3, #3840]	; 0xf00
50000654:	e12fff1e 	bx	lr
50000658:	50000fac 	andpl	r0, r0, ip, lsr #31
5000065c:	7f006000 	svcvc	0x00006000
50000660:	71200000 	teqvc	r0, r0

50000664 <key_irq_handler>:
50000664:	e59f0040 	ldr	r0, [pc, #64]	; 500006ac <key_irq_handler+0x48>
50000668:	e59f2040 	ldr	r2, [pc, #64]	; 500006b0 <key_irq_handler+0x4c>
5000066c:	e3a03000 	mov	r3, #0
50000670:	e3a01001 	mov	r1, #1
50000674:	e590c924 	ldr	ip, [r0, #2340]	; 0x924
50000678:	e01cc311 	ands	ip, ip, r1, lsl r3
5000067c:	1283c001 	addne	ip, r3, #1
50000680:	e2833001 	add	r3, r3, #1
50000684:	1582c000 	strne	ip, [r2]
50000688:	e3530004 	cmp	r3, #4
5000068c:	1afffff8 	bne	50000674 <key_irq_handler+0x10>
50000690:	e59f3014 	ldr	r3, [pc, #20]	; 500006ac <key_irq_handler+0x48>
50000694:	e3a0203f 	mov	r2, #63	; 0x3f
50000698:	e5832924 	str	r2, [r3, #2340]	; 0x924
5000069c:	e59f3010 	ldr	r3, [pc, #16]	; 500006b4 <key_irq_handler+0x50>
500006a0:	e3a02000 	mov	r2, #0
500006a4:	e5832f00 	str	r2, [r3, #3840]	; 0xf00
500006a8:	e12fff1e 	bx	lr
500006ac:	7f008000 	svcvc	0x00008000
500006b0:	50000fa8 	andpl	r0, r0, r8, lsr #31
500006b4:	71200000 	teqvc	r0, r0

500006b8 <delay>:
500006b8:	e59f105c 	ldr	r1, [pc, #92]	; 5000071c <delay+0x64>
500006bc:	e59fc05c 	ldr	ip, [pc, #92]	; 50000720 <delay+0x68>
500006c0:	e0010091 	mul	r1, r1, r0
500006c4:	e59f3058 	ldr	r3, [pc, #88]	; 50000724 <delay+0x6c>
500006c8:	e3a02000 	mov	r2, #0
500006cc:	e5832000 	str	r2, [r3]
500006d0:	e58c100c 	str	r1, [ip, #12]
500006d4:	e58c2010 	str	r2, [ip, #16]
500006d8:	e59c2008 	ldr	r2, [ip, #8]
500006dc:	e3822002 	orr	r2, r2, #2
500006e0:	e58c2008 	str	r2, [ip, #8]
500006e4:	e59c2008 	ldr	r2, [ip, #8]
500006e8:	e3c22002 	bic	r2, r2, #2
500006ec:	e58c2008 	str	r2, [ip, #8]
500006f0:	e59c2008 	ldr	r2, [ip, #8]
500006f4:	e3822009 	orr	r2, r2, #9
500006f8:	e58c2008 	str	r2, [ip, #8]
500006fc:	e5932000 	ldr	r2, [r3]
50000700:	e3520000 	cmp	r2, #0
50000704:	dafffffc 	ble	500006fc <delay+0x44>
50000708:	e59f3010 	ldr	r3, [pc, #16]	; 50000720 <delay+0x68>
5000070c:	e5932008 	ldr	r2, [r3, #8]
50000710:	e3c22001 	bic	r2, r2, #1
50000714:	e5832008 	str	r2, [r3, #8]
50000718:	e12fff1e 	bx	lr
5000071c:	00000271 	andeq	r0, r0, r1, ror r2
50000720:	7f006000 	svcvc	0x00006000
50000724:	50000fac 	andpl	r0, r0, ip, lsr #31

50000728 <allClose>:
50000728:	e59f3024 	ldr	r3, [pc, #36]	; 50000754 <allClose+0x2c>
5000072c:	e3a020f0 	mov	r2, #240	; 0xf0
50000730:	e5832808 	str	r2, [r3, #2056]	; 0x808
50000734:	e59f201c 	ldr	r2, [pc, #28]	; 50000758 <allClose+0x30>
50000738:	e5921008 	ldr	r1, [r2, #8]
5000073c:	e3c11001 	bic	r1, r1, #1
50000740:	e5821008 	str	r1, [r2, #8]
50000744:	e59320a4 	ldr	r2, [r3, #164]	; 0xa4
50000748:	e3c22901 	bic	r2, r2, #16384	; 0x4000
5000074c:	e58320a4 	str	r2, [r3, #164]	; 0xa4
50000750:	e12fff1e 	bx	lr
50000754:	7f008000 	svcvc	0x00008000
50000758:	7f006000 	svcvc	0x00006000

5000075c <k1>:
5000075c:	e92d4010 	push	{r4, lr}
50000760:	e59f4218 	ldr	r4, [pc, #536]	; 50000980 <k1+0x224>
50000764:	e3a000c8 	mov	r0, #200	; 0xc8
50000768:	e5943808 	ldr	r3, [r4, #2056]	; 0x808
5000076c:	e3c33020 	bic	r3, r3, #32
50000770:	e5843808 	str	r3, [r4, #2056]	; 0x808
50000774:	e5943808 	ldr	r3, [r4, #2056]	; 0x808
50000778:	e3c33040 	bic	r3, r3, #64	; 0x40
5000077c:	e5843808 	str	r3, [r4, #2056]	; 0x808
50000780:	ebffffcc 	bl	500006b8 <delay>
50000784:	e5943808 	ldr	r3, [r4, #2056]	; 0x808
50000788:	e3a00014 	mov	r0, #20
5000078c:	e3833020 	orr	r3, r3, #32
50000790:	e5843808 	str	r3, [r4, #2056]	; 0x808
50000794:	e5943808 	ldr	r3, [r4, #2056]	; 0x808
50000798:	e3833040 	orr	r3, r3, #64	; 0x40
5000079c:	e5843808 	str	r3, [r4, #2056]	; 0x808
500007a0:	ebffffc4 	bl	500006b8 <delay>
500007a4:	e5943808 	ldr	r3, [r4, #2056]	; 0x808
500007a8:	e3a00014 	mov	r0, #20
500007ac:	e3c33020 	bic	r3, r3, #32
500007b0:	e5843808 	str	r3, [r4, #2056]	; 0x808
500007b4:	e5943808 	ldr	r3, [r4, #2056]	; 0x808
500007b8:	e3c33040 	bic	r3, r3, #64	; 0x40
500007bc:	e5843808 	str	r3, [r4, #2056]	; 0x808
500007c0:	ebffffbc 	bl	500006b8 <delay>
500007c4:	e5943808 	ldr	r3, [r4, #2056]	; 0x808
500007c8:	e3a00014 	mov	r0, #20
500007cc:	e3833020 	orr	r3, r3, #32
500007d0:	e5843808 	str	r3, [r4, #2056]	; 0x808
500007d4:	e5943808 	ldr	r3, [r4, #2056]	; 0x808
500007d8:	e3833040 	orr	r3, r3, #64	; 0x40
500007dc:	e5843808 	str	r3, [r4, #2056]	; 0x808
500007e0:	ebffffb4 	bl	500006b8 <delay>
500007e4:	e5943808 	ldr	r3, [r4, #2056]	; 0x808
500007e8:	e3a00014 	mov	r0, #20
500007ec:	e3c33020 	bic	r3, r3, #32
500007f0:	e5843808 	str	r3, [r4, #2056]	; 0x808
500007f4:	e5943808 	ldr	r3, [r4, #2056]	; 0x808
500007f8:	e3c33040 	bic	r3, r3, #64	; 0x40
500007fc:	e5843808 	str	r3, [r4, #2056]	; 0x808
50000800:	ebffffac 	bl	500006b8 <delay>
50000804:	e5943808 	ldr	r3, [r4, #2056]	; 0x808
50000808:	e3a00014 	mov	r0, #20
5000080c:	e3833020 	orr	r3, r3, #32
50000810:	e5843808 	str	r3, [r4, #2056]	; 0x808
50000814:	e5943808 	ldr	r3, [r4, #2056]	; 0x808
50000818:	e3833040 	orr	r3, r3, #64	; 0x40
5000081c:	e5843808 	str	r3, [r4, #2056]	; 0x808
50000820:	ebffffa4 	bl	500006b8 <delay>
50000824:	e5943808 	ldr	r3, [r4, #2056]	; 0x808
50000828:	e3a00014 	mov	r0, #20
5000082c:	e3c33020 	bic	r3, r3, #32
50000830:	e5843808 	str	r3, [r4, #2056]	; 0x808
50000834:	e5943808 	ldr	r3, [r4, #2056]	; 0x808
50000838:	e3c33040 	bic	r3, r3, #64	; 0x40
5000083c:	e5843808 	str	r3, [r4, #2056]	; 0x808
50000840:	ebffff9c 	bl	500006b8 <delay>
50000844:	e5943808 	ldr	r3, [r4, #2056]	; 0x808
50000848:	e3a00014 	mov	r0, #20
5000084c:	e3833020 	orr	r3, r3, #32
50000850:	e5843808 	str	r3, [r4, #2056]	; 0x808
50000854:	e5943808 	ldr	r3, [r4, #2056]	; 0x808
50000858:	e3833040 	orr	r3, r3, #64	; 0x40
5000085c:	e5843808 	str	r3, [r4, #2056]	; 0x808
50000860:	ebffff94 	bl	500006b8 <delay>
50000864:	e5943808 	ldr	r3, [r4, #2056]	; 0x808
50000868:	e3a000c8 	mov	r0, #200	; 0xc8
5000086c:	e3c33010 	bic	r3, r3, #16
50000870:	e5843808 	str	r3, [r4, #2056]	; 0x808
50000874:	e5943808 	ldr	r3, [r4, #2056]	; 0x808
50000878:	e3c33080 	bic	r3, r3, #128	; 0x80
5000087c:	e5843808 	str	r3, [r4, #2056]	; 0x808
50000880:	ebffff8c 	bl	500006b8 <delay>
50000884:	e5943808 	ldr	r3, [r4, #2056]	; 0x808
50000888:	e3a00014 	mov	r0, #20
5000088c:	e3833010 	orr	r3, r3, #16
50000890:	e5843808 	str	r3, [r4, #2056]	; 0x808
50000894:	e5943808 	ldr	r3, [r4, #2056]	; 0x808
50000898:	e3833080 	orr	r3, r3, #128	; 0x80
5000089c:	e5843808 	str	r3, [r4, #2056]	; 0x808
500008a0:	ebffff84 	bl	500006b8 <delay>
500008a4:	e5943808 	ldr	r3, [r4, #2056]	; 0x808
500008a8:	e3a00014 	mov	r0, #20
500008ac:	e3c33010 	bic	r3, r3, #16
500008b0:	e5843808 	str	r3, [r4, #2056]	; 0x808
500008b4:	e5943808 	ldr	r3, [r4, #2056]	; 0x808
500008b8:	e3c33080 	bic	r3, r3, #128	; 0x80
500008bc:	e5843808 	str	r3, [r4, #2056]	; 0x808
500008c0:	ebffff7c 	bl	500006b8 <delay>
500008c4:	e5943808 	ldr	r3, [r4, #2056]	; 0x808
500008c8:	e3a00014 	mov	r0, #20
500008cc:	e3833010 	orr	r3, r3, #16
500008d0:	e5843808 	str	r3, [r4, #2056]	; 0x808
500008d4:	e5943808 	ldr	r3, [r4, #2056]	; 0x808
500008d8:	e3833080 	orr	r3, r3, #128	; 0x80
500008dc:	e5843808 	str	r3, [r4, #2056]	; 0x808
500008e0:	ebffff74 	bl	500006b8 <delay>
500008e4:	e5943808 	ldr	r3, [r4, #2056]	; 0x808
500008e8:	e3a00014 	mov	r0, #20
500008ec:	e3c33010 	bic	r3, r3, #16
500008f0:	e5843808 	str	r3, [r4, #2056]	; 0x808
500008f4:	e5943808 	ldr	r3, [r4, #2056]	; 0x808
500008f8:	e3c33080 	bic	r3, r3, #128	; 0x80
500008fc:	e5843808 	str	r3, [r4, #2056]	; 0x808
50000900:	ebffff6c 	bl	500006b8 <delay>
50000904:	e5943808 	ldr	r3, [r4, #2056]	; 0x808
50000908:	e3a00014 	mov	r0, #20
5000090c:	e3833010 	orr	r3, r3, #16
50000910:	e5843808 	str	r3, [r4, #2056]	; 0x808
50000914:	e5943808 	ldr	r3, [r4, #2056]	; 0x808
50000918:	e3833080 	orr	r3, r3, #128	; 0x80
5000091c:	e5843808 	str	r3, [r4, #2056]	; 0x808
50000920:	ebffff64 	bl	500006b8 <delay>
50000924:	e5943808 	ldr	r3, [r4, #2056]	; 0x808
50000928:	e3a00014 	mov	r0, #20
5000092c:	e3c33010 	bic	r3, r3, #16
50000930:	e5843808 	str	r3, [r4, #2056]	; 0x808
50000934:	e5943808 	ldr	r3, [r4, #2056]	; 0x808
50000938:	e3c33080 	bic	r3, r3, #128	; 0x80
5000093c:	e5843808 	str	r3, [r4, #2056]	; 0x808
50000940:	ebffff5c 	bl	500006b8 <delay>
50000944:	e5943808 	ldr	r3, [r4, #2056]	; 0x808
50000948:	e3a00014 	mov	r0, #20
5000094c:	e3833010 	orr	r3, r3, #16
50000950:	e5843808 	str	r3, [r4, #2056]	; 0x808
50000954:	e5943808 	ldr	r3, [r4, #2056]	; 0x808
50000958:	e3833080 	orr	r3, r3, #128	; 0x80
5000095c:	e5843808 	str	r3, [r4, #2056]	; 0x808
50000960:	ebffff54 	bl	500006b8 <delay>
50000964:	e5943808 	ldr	r3, [r4, #2056]	; 0x808
50000968:	e3c33020 	bic	r3, r3, #32
5000096c:	e5843808 	str	r3, [r4, #2056]	; 0x808
50000970:	e5943808 	ldr	r3, [r4, #2056]	; 0x808
50000974:	e3c33040 	bic	r3, r3, #64	; 0x40
50000978:	e5843808 	str	r3, [r4, #2056]	; 0x808
5000097c:	e8bd8010 	pop	{r4, pc}
50000980:	7f008000 	svcvc	0x00008000

50000984 <k2>:
50000984:	e92d4010 	push	{r4, lr}
50000988:	e59f4200 	ldr	r4, [pc, #512]	; 50000b90 <k2+0x20c>
5000098c:	e3a00064 	mov	r0, #100	; 0x64
50000990:	e5943808 	ldr	r3, [r4, #2056]	; 0x808
50000994:	e3c33020 	bic	r3, r3, #32
50000998:	e5843808 	str	r3, [r4, #2056]	; 0x808
5000099c:	e5943808 	ldr	r3, [r4, #2056]	; 0x808
500009a0:	e3c33040 	bic	r3, r3, #64	; 0x40
500009a4:	e5843808 	str	r3, [r4, #2056]	; 0x808
500009a8:	ebffff42 	bl	500006b8 <delay>
500009ac:	e5943808 	ldr	r3, [r4, #2056]	; 0x808
500009b0:	e3a00014 	mov	r0, #20
500009b4:	e3833020 	orr	r3, r3, #32
500009b8:	e5843808 	str	r3, [r4, #2056]	; 0x808
500009bc:	e5943808 	ldr	r3, [r4, #2056]	; 0x808
500009c0:	e3833040 	orr	r3, r3, #64	; 0x40
500009c4:	e5843808 	str	r3, [r4, #2056]	; 0x808
500009c8:	ebffff3a 	bl	500006b8 <delay>
500009cc:	e5943808 	ldr	r3, [r4, #2056]	; 0x808
500009d0:	e3a00014 	mov	r0, #20
500009d4:	e3c33020 	bic	r3, r3, #32
500009d8:	e5843808 	str	r3, [r4, #2056]	; 0x808
500009dc:	e5943808 	ldr	r3, [r4, #2056]	; 0x808
500009e0:	e3c33040 	bic	r3, r3, #64	; 0x40
500009e4:	e5843808 	str	r3, [r4, #2056]	; 0x808
500009e8:	ebffff32 	bl	500006b8 <delay>
500009ec:	e5943808 	ldr	r3, [r4, #2056]	; 0x808
500009f0:	e3a00014 	mov	r0, #20
500009f4:	e3833020 	orr	r3, r3, #32
500009f8:	e5843808 	str	r3, [r4, #2056]	; 0x808
500009fc:	e5943808 	ldr	r3, [r4, #2056]	; 0x808
50000a00:	e3833040 	orr	r3, r3, #64	; 0x40
50000a04:	e5843808 	str	r3, [r4, #2056]	; 0x808
50000a08:	ebffff2a 	bl	500006b8 <delay>
50000a0c:	e5943808 	ldr	r3, [r4, #2056]	; 0x808
50000a10:	e3a00014 	mov	r0, #20
50000a14:	e3c33020 	bic	r3, r3, #32
50000a18:	e5843808 	str	r3, [r4, #2056]	; 0x808
50000a1c:	e5943808 	ldr	r3, [r4, #2056]	; 0x808
50000a20:	e3c33040 	bic	r3, r3, #64	; 0x40
50000a24:	e5843808 	str	r3, [r4, #2056]	; 0x808
50000a28:	ebffff22 	bl	500006b8 <delay>
50000a2c:	e5943808 	ldr	r3, [r4, #2056]	; 0x808
50000a30:	e3a00014 	mov	r0, #20
50000a34:	e3833020 	orr	r3, r3, #32
50000a38:	e5843808 	str	r3, [r4, #2056]	; 0x808
50000a3c:	e5943808 	ldr	r3, [r4, #2056]	; 0x808
50000a40:	e3833040 	orr	r3, r3, #64	; 0x40
50000a44:	e5843808 	str	r3, [r4, #2056]	; 0x808
50000a48:	ebffff1a 	bl	500006b8 <delay>
50000a4c:	e5943808 	ldr	r3, [r4, #2056]	; 0x808
50000a50:	e3a00014 	mov	r0, #20
50000a54:	e3c33020 	bic	r3, r3, #32
50000a58:	e5843808 	str	r3, [r4, #2056]	; 0x808
50000a5c:	e5943808 	ldr	r3, [r4, #2056]	; 0x808
50000a60:	e3c33040 	bic	r3, r3, #64	; 0x40
50000a64:	e5843808 	str	r3, [r4, #2056]	; 0x808
50000a68:	ebffff12 	bl	500006b8 <delay>
50000a6c:	e5943808 	ldr	r3, [r4, #2056]	; 0x808
50000a70:	e3a00014 	mov	r0, #20
50000a74:	e3833020 	orr	r3, r3, #32
50000a78:	e5843808 	str	r3, [r4, #2056]	; 0x808
50000a7c:	e5943808 	ldr	r3, [r4, #2056]	; 0x808
50000a80:	e3833040 	orr	r3, r3, #64	; 0x40
50000a84:	e5843808 	str	r3, [r4, #2056]	; 0x808
50000a88:	ebffff0a 	bl	500006b8 <delay>
50000a8c:	e5943808 	ldr	r3, [r4, #2056]	; 0x808
50000a90:	e3a00064 	mov	r0, #100	; 0x64
50000a94:	e3c33010 	bic	r3, r3, #16
50000a98:	e5843808 	str	r3, [r4, #2056]	; 0x808
50000a9c:	e5943808 	ldr	r3, [r4, #2056]	; 0x808
50000aa0:	e3c33080 	bic	r3, r3, #128	; 0x80
50000aa4:	e5843808 	str	r3, [r4, #2056]	; 0x808
50000aa8:	ebffff02 	bl	500006b8 <delay>
50000aac:	e5943808 	ldr	r3, [r4, #2056]	; 0x808
50000ab0:	e3a00014 	mov	r0, #20
50000ab4:	e3833010 	orr	r3, r3, #16
50000ab8:	e5843808 	str	r3, [r4, #2056]	; 0x808
50000abc:	e5943808 	ldr	r3, [r4, #2056]	; 0x808
50000ac0:	e3833080 	orr	r3, r3, #128	; 0x80
50000ac4:	e5843808 	str	r3, [r4, #2056]	; 0x808
50000ac8:	ebfffefa 	bl	500006b8 <delay>
50000acc:	e5943808 	ldr	r3, [r4, #2056]	; 0x808
50000ad0:	e3a00014 	mov	r0, #20
50000ad4:	e3c33010 	bic	r3, r3, #16
50000ad8:	e5843808 	str	r3, [r4, #2056]	; 0x808
50000adc:	e5943808 	ldr	r3, [r4, #2056]	; 0x808
50000ae0:	e3c33080 	bic	r3, r3, #128	; 0x80
50000ae4:	e5843808 	str	r3, [r4, #2056]	; 0x808
50000ae8:	ebfffef2 	bl	500006b8 <delay>
50000aec:	e5943808 	ldr	r3, [r4, #2056]	; 0x808
50000af0:	e3a00014 	mov	r0, #20
50000af4:	e3833010 	orr	r3, r3, #16
50000af8:	e5843808 	str	r3, [r4, #2056]	; 0x808
50000afc:	e5943808 	ldr	r3, [r4, #2056]	; 0x808
50000b00:	e3833080 	orr	r3, r3, #128	; 0x80
50000b04:	e5843808 	str	r3, [r4, #2056]	; 0x808
50000b08:	ebfffeea 	bl	500006b8 <delay>
50000b0c:	e5943808 	ldr	r3, [r4, #2056]	; 0x808
50000b10:	e3a00014 	mov	r0, #20
50000b14:	e3c33010 	bic	r3, r3, #16
50000b18:	e5843808 	str	r3, [r4, #2056]	; 0x808
50000b1c:	e5943808 	ldr	r3, [r4, #2056]	; 0x808
50000b20:	e3c33080 	bic	r3, r3, #128	; 0x80
50000b24:	e5843808 	str	r3, [r4, #2056]	; 0x808
50000b28:	ebfffee2 	bl	500006b8 <delay>
50000b2c:	e5943808 	ldr	r3, [r4, #2056]	; 0x808
50000b30:	e3a00014 	mov	r0, #20
50000b34:	e3833010 	orr	r3, r3, #16
50000b38:	e5843808 	str	r3, [r4, #2056]	; 0x808
50000b3c:	e5943808 	ldr	r3, [r4, #2056]	; 0x808
50000b40:	e3833080 	orr	r3, r3, #128	; 0x80
50000b44:	e5843808 	str	r3, [r4, #2056]	; 0x808
50000b48:	ebfffeda 	bl	500006b8 <delay>
50000b4c:	e5943808 	ldr	r3, [r4, #2056]	; 0x808
50000b50:	e3a00014 	mov	r0, #20
50000b54:	e3c33010 	bic	r3, r3, #16
50000b58:	e5843808 	str	r3, [r4, #2056]	; 0x808
50000b5c:	e5943808 	ldr	r3, [r4, #2056]	; 0x808
50000b60:	e3c33080 	bic	r3, r3, #128	; 0x80
50000b64:	e5843808 	str	r3, [r4, #2056]	; 0x808
50000b68:	ebfffed2 	bl	500006b8 <delay>
50000b6c:	e5943808 	ldr	r3, [r4, #2056]	; 0x808
50000b70:	e3a00014 	mov	r0, #20
50000b74:	e3833010 	orr	r3, r3, #16
50000b78:	e5843808 	str	r3, [r4, #2056]	; 0x808
50000b7c:	e5943808 	ldr	r3, [r4, #2056]	; 0x808
50000b80:	e3833080 	orr	r3, r3, #128	; 0x80
50000b84:	e5843808 	str	r3, [r4, #2056]	; 0x808
50000b88:	e8bd4010 	pop	{r4, lr}
50000b8c:	eafffec9 	b	500006b8 <delay>
50000b90:	7f008000 	svcvc	0x00008000

50000b94 <k3>:
50000b94:	e92d4010 	push	{r4, lr}
50000b98:	e59f4200 	ldr	r4, [pc, #512]	; 50000da0 <k3+0x20c>
50000b9c:	e3a00032 	mov	r0, #50	; 0x32
50000ba0:	e5943808 	ldr	r3, [r4, #2056]	; 0x808
50000ba4:	e3c33020 	bic	r3, r3, #32
50000ba8:	e5843808 	str	r3, [r4, #2056]	; 0x808
50000bac:	e5943808 	ldr	r3, [r4, #2056]	; 0x808
50000bb0:	e3c33040 	bic	r3, r3, #64	; 0x40
50000bb4:	e5843808 	str	r3, [r4, #2056]	; 0x808
50000bb8:	ebfffebe 	bl	500006b8 <delay>
50000bbc:	e5943808 	ldr	r3, [r4, #2056]	; 0x808
50000bc0:	e3a00014 	mov	r0, #20
50000bc4:	e3833020 	orr	r3, r3, #32
50000bc8:	e5843808 	str	r3, [r4, #2056]	; 0x808
50000bcc:	e5943808 	ldr	r3, [r4, #2056]	; 0x808
50000bd0:	e3833040 	orr	r3, r3, #64	; 0x40
50000bd4:	e5843808 	str	r3, [r4, #2056]	; 0x808
50000bd8:	ebfffeb6 	bl	500006b8 <delay>
50000bdc:	e5943808 	ldr	r3, [r4, #2056]	; 0x808
50000be0:	e3a00014 	mov	r0, #20
50000be4:	e3c33020 	bic	r3, r3, #32
50000be8:	e5843808 	str	r3, [r4, #2056]	; 0x808
50000bec:	e5943808 	ldr	r3, [r4, #2056]	; 0x808
50000bf0:	e3c33040 	bic	r3, r3, #64	; 0x40
50000bf4:	e5843808 	str	r3, [r4, #2056]	; 0x808
50000bf8:	ebfffeae 	bl	500006b8 <delay>
50000bfc:	e5943808 	ldr	r3, [r4, #2056]	; 0x808
50000c00:	e3a00014 	mov	r0, #20
50000c04:	e3833020 	orr	r3, r3, #32
50000c08:	e5843808 	str	r3, [r4, #2056]	; 0x808
50000c0c:	e5943808 	ldr	r3, [r4, #2056]	; 0x808
50000c10:	e3833040 	orr	r3, r3, #64	; 0x40
50000c14:	e5843808 	str	r3, [r4, #2056]	; 0x808
50000c18:	ebfffea6 	bl	500006b8 <delay>
50000c1c:	e5943808 	ldr	r3, [r4, #2056]	; 0x808
50000c20:	e3a00014 	mov	r0, #20
50000c24:	e3c33020 	bic	r3, r3, #32
50000c28:	e5843808 	str	r3, [r4, #2056]	; 0x808
50000c2c:	e5943808 	ldr	r3, [r4, #2056]	; 0x808
50000c30:	e3c33040 	bic	r3, r3, #64	; 0x40
50000c34:	e5843808 	str	r3, [r4, #2056]	; 0x808
50000c38:	ebfffe9e 	bl	500006b8 <delay>
50000c3c:	e5943808 	ldr	r3, [r4, #2056]	; 0x808
50000c40:	e3a00014 	mov	r0, #20
50000c44:	e3833020 	orr	r3, r3, #32
50000c48:	e5843808 	str	r3, [r4, #2056]	; 0x808
50000c4c:	e5943808 	ldr	r3, [r4, #2056]	; 0x808
50000c50:	e3833040 	orr	r3, r3, #64	; 0x40
50000c54:	e5843808 	str	r3, [r4, #2056]	; 0x808
50000c58:	ebfffe96 	bl	500006b8 <delay>
50000c5c:	e5943808 	ldr	r3, [r4, #2056]	; 0x808
50000c60:	e3a00014 	mov	r0, #20
50000c64:	e3c33020 	bic	r3, r3, #32
50000c68:	e5843808 	str	r3, [r4, #2056]	; 0x808
50000c6c:	e5943808 	ldr	r3, [r4, #2056]	; 0x808
50000c70:	e3c33040 	bic	r3, r3, #64	; 0x40
50000c74:	e5843808 	str	r3, [r4, #2056]	; 0x808
50000c78:	ebfffe8e 	bl	500006b8 <delay>
50000c7c:	e5943808 	ldr	r3, [r4, #2056]	; 0x808
50000c80:	e3a00014 	mov	r0, #20
50000c84:	e3833020 	orr	r3, r3, #32
50000c88:	e5843808 	str	r3, [r4, #2056]	; 0x808
50000c8c:	e5943808 	ldr	r3, [r4, #2056]	; 0x808
50000c90:	e3833040 	orr	r3, r3, #64	; 0x40
50000c94:	e5843808 	str	r3, [r4, #2056]	; 0x808
50000c98:	ebfffe86 	bl	500006b8 <delay>
50000c9c:	e5943808 	ldr	r3, [r4, #2056]	; 0x808
50000ca0:	e3a000c8 	mov	r0, #200	; 0xc8
50000ca4:	e3c33010 	bic	r3, r3, #16
50000ca8:	e5843808 	str	r3, [r4, #2056]	; 0x808
50000cac:	e5943808 	ldr	r3, [r4, #2056]	; 0x808
50000cb0:	e3c33080 	bic	r3, r3, #128	; 0x80
50000cb4:	e5843808 	str	r3, [r4, #2056]	; 0x808
50000cb8:	ebfffe7e 	bl	500006b8 <delay>
50000cbc:	e5943808 	ldr	r3, [r4, #2056]	; 0x808
50000cc0:	e3a00014 	mov	r0, #20
50000cc4:	e3833010 	orr	r3, r3, #16
50000cc8:	e5843808 	str	r3, [r4, #2056]	; 0x808
50000ccc:	e5943808 	ldr	r3, [r4, #2056]	; 0x808
50000cd0:	e3833080 	orr	r3, r3, #128	; 0x80
50000cd4:	e5843808 	str	r3, [r4, #2056]	; 0x808
50000cd8:	ebfffe76 	bl	500006b8 <delay>
50000cdc:	e5943808 	ldr	r3, [r4, #2056]	; 0x808
50000ce0:	e3a00014 	mov	r0, #20
50000ce4:	e3c33010 	bic	r3, r3, #16
50000ce8:	e5843808 	str	r3, [r4, #2056]	; 0x808
50000cec:	e5943808 	ldr	r3, [r4, #2056]	; 0x808
50000cf0:	e3c33080 	bic	r3, r3, #128	; 0x80
50000cf4:	e5843808 	str	r3, [r4, #2056]	; 0x808
50000cf8:	ebfffe6e 	bl	500006b8 <delay>
50000cfc:	e5943808 	ldr	r3, [r4, #2056]	; 0x808
50000d00:	e3a00014 	mov	r0, #20
50000d04:	e3833010 	orr	r3, r3, #16
50000d08:	e5843808 	str	r3, [r4, #2056]	; 0x808
50000d0c:	e5943808 	ldr	r3, [r4, #2056]	; 0x808
50000d10:	e3833080 	orr	r3, r3, #128	; 0x80
50000d14:	e5843808 	str	r3, [r4, #2056]	; 0x808
50000d18:	ebfffe66 	bl	500006b8 <delay>
50000d1c:	e5943808 	ldr	r3, [r4, #2056]	; 0x808
50000d20:	e3a00014 	mov	r0, #20
50000d24:	e3c33010 	bic	r3, r3, #16
50000d28:	e5843808 	str	r3, [r4, #2056]	; 0x808
50000d2c:	e5943808 	ldr	r3, [r4, #2056]	; 0x808
50000d30:	e3c33080 	bic	r3, r3, #128	; 0x80
50000d34:	e5843808 	str	r3, [r4, #2056]	; 0x808
50000d38:	ebfffe5e 	bl	500006b8 <delay>
50000d3c:	e5943808 	ldr	r3, [r4, #2056]	; 0x808
50000d40:	e3a00014 	mov	r0, #20
50000d44:	e3833010 	orr	r3, r3, #16
50000d48:	e5843808 	str	r3, [r4, #2056]	; 0x808
50000d4c:	e5943808 	ldr	r3, [r4, #2056]	; 0x808
50000d50:	e3833080 	orr	r3, r3, #128	; 0x80
50000d54:	e5843808 	str	r3, [r4, #2056]	; 0x808
50000d58:	ebfffe56 	bl	500006b8 <delay>
50000d5c:	e5943808 	ldr	r3, [r4, #2056]	; 0x808
50000d60:	e3a00014 	mov	r0, #20
50000d64:	e3c33010 	bic	r3, r3, #16
50000d68:	e5843808 	str	r3, [r4, #2056]	; 0x808
50000d6c:	e5943808 	ldr	r3, [r4, #2056]	; 0x808
50000d70:	e3c33080 	bic	r3, r3, #128	; 0x80
50000d74:	e5843808 	str	r3, [r4, #2056]	; 0x808
50000d78:	ebfffe4e 	bl	500006b8 <delay>
50000d7c:	e5943808 	ldr	r3, [r4, #2056]	; 0x808
50000d80:	e3a00014 	mov	r0, #20
50000d84:	e3833010 	orr	r3, r3, #16
50000d88:	e5843808 	str	r3, [r4, #2056]	; 0x808
50000d8c:	e5943808 	ldr	r3, [r4, #2056]	; 0x808
50000d90:	e3833080 	orr	r3, r3, #128	; 0x80
50000d94:	e5843808 	str	r3, [r4, #2056]	; 0x808
50000d98:	e8bd4010 	pop	{r4, lr}
50000d9c:	eafffe45 	b	500006b8 <delay>
50000da0:	7f008000 	svcvc	0x00008000

50000da4 <success_k1>:
50000da4:	e92d4070 	push	{r4, r5, r6, lr}
50000da8:	e59f4044 	ldr	r4, [pc, #68]	; 50000df4 <success_k1+0x50>
50000dac:	e3a05000 	mov	r5, #0
50000db0:	e3a000c8 	mov	r0, #200	; 0xc8
50000db4:	e3a060f0 	mov	r6, #240	; 0xf0
50000db8:	e5845808 	str	r5, [r4, #2056]	; 0x808
50000dbc:	ebfffe3d 	bl	500006b8 <delay>
50000dc0:	e3a000c8 	mov	r0, #200	; 0xc8
50000dc4:	e5846808 	str	r6, [r4, #2056]	; 0x808
50000dc8:	ebfffe3a 	bl	500006b8 <delay>
50000dcc:	e5845808 	str	r5, [r4, #2056]	; 0x808
50000dd0:	e3a000c8 	mov	r0, #200	; 0xc8
50000dd4:	ebfffe37 	bl	500006b8 <delay>
50000dd8:	e59f3018 	ldr	r3, [pc, #24]	; 50000df8 <success_k1+0x54>
50000ddc:	e5846808 	str	r6, [r4, #2056]	; 0x808
50000de0:	e5835000 	str	r5, [r3]
50000de4:	e59f3010 	ldr	r3, [pc, #16]	; 50000dfc <success_k1+0x58>
50000de8:	e3a02001 	mov	r2, #1
50000dec:	e5832000 	str	r2, [r3]
50000df0:	e8bd8070 	pop	{r4, r5, r6, pc}
50000df4:	7f008000 	svcvc	0x00008000
50000df8:	50000fa8 	andpl	r0, r0, r8, lsr #31
50000dfc:	50000fb0 	undefined instruction 0x50000fb0

50000e00 <success_k2>:
50000e00:	e92d4010 	push	{r4, lr}
50000e04:	e59f4060 	ldr	r4, [pc, #96]	; 50000e6c <success_k2+0x6c>
50000e08:	e3a00064 	mov	r0, #100	; 0x64
50000e0c:	e59430a4 	ldr	r3, [r4, #164]	; 0xa4
50000e10:	e3833901 	orr	r3, r3, #16384	; 0x4000
50000e14:	e58430a4 	str	r3, [r4, #164]	; 0xa4
50000e18:	ebfffe26 	bl	500006b8 <delay>
50000e1c:	e59430a4 	ldr	r3, [r4, #164]	; 0xa4
50000e20:	e3a00064 	mov	r0, #100	; 0x64
50000e24:	e3c33901 	bic	r3, r3, #16384	; 0x4000
50000e28:	e58430a4 	str	r3, [r4, #164]	; 0xa4
50000e2c:	ebfffe21 	bl	500006b8 <delay>
50000e30:	e59430a4 	ldr	r3, [r4, #164]	; 0xa4
50000e34:	e3a00064 	mov	r0, #100	; 0x64
50000e38:	e3833901 	orr	r3, r3, #16384	; 0x4000
50000e3c:	e58430a4 	str	r3, [r4, #164]	; 0xa4
50000e40:	ebfffe1c 	bl	500006b8 <delay>
50000e44:	e59430a4 	ldr	r3, [r4, #164]	; 0xa4
50000e48:	e3a02000 	mov	r2, #0
50000e4c:	e3c33901 	bic	r3, r3, #16384	; 0x4000
50000e50:	e58430a4 	str	r3, [r4, #164]	; 0xa4
50000e54:	e59f3014 	ldr	r3, [pc, #20]	; 50000e70 <success_k2+0x70>
50000e58:	e5832000 	str	r2, [r3]
50000e5c:	e59f3010 	ldr	r3, [pc, #16]	; 50000e74 <success_k2+0x74>
50000e60:	e2822002 	add	r2, r2, #2
50000e64:	e5832000 	str	r2, [r3]
50000e68:	e8bd8010 	pop	{r4, pc}
50000e6c:	7f008000 	svcvc	0x00008000
50000e70:	50000fa8 	andpl	r0, r0, r8, lsr #31
50000e74:	50000fb0 	undefined instruction 0x50000fb0

50000e78 <success_k3>:
50000e78:	e92d4070 	push	{r4, r5, r6, lr}
50000e7c:	e59f4074 	ldr	r4, [pc, #116]	; 50000ef8 <success_k3+0x80>
50000e80:	e3a05000 	mov	r5, #0
50000e84:	e5845808 	str	r5, [r4, #2056]	; 0x808
50000e88:	e59430a4 	ldr	r3, [r4, #164]	; 0xa4
50000e8c:	e3a060f0 	mov	r6, #240	; 0xf0
50000e90:	e3833901 	orr	r3, r3, #16384	; 0x4000
50000e94:	e58430a4 	str	r3, [r4, #164]	; 0xa4
50000e98:	e3a00014 	mov	r0, #20
50000e9c:	ebfffe05 	bl	500006b8 <delay>
50000ea0:	e3a00014 	mov	r0, #20
50000ea4:	e5846808 	str	r6, [r4, #2056]	; 0x808
50000ea8:	ebfffe02 	bl	500006b8 <delay>
50000eac:	e3a00014 	mov	r0, #20
50000eb0:	e5845808 	str	r5, [r4, #2056]	; 0x808
50000eb4:	ebfffdff 	bl	500006b8 <delay>
50000eb8:	e3a00014 	mov	r0, #20
50000ebc:	e5846808 	str	r6, [r4, #2056]	; 0x808
50000ec0:	ebfffdfc 	bl	500006b8 <delay>
50000ec4:	e5845808 	str	r5, [r4, #2056]	; 0x808
50000ec8:	e3a00014 	mov	r0, #20
50000ecc:	ebfffdf9 	bl	500006b8 <delay>
50000ed0:	e5846808 	str	r6, [r4, #2056]	; 0x808
50000ed4:	e59430a4 	ldr	r3, [r4, #164]	; 0xa4
50000ed8:	e3a02003 	mov	r2, #3
50000edc:	e3c33901 	bic	r3, r3, #16384	; 0x4000
50000ee0:	e58430a4 	str	r3, [r4, #164]	; 0xa4
50000ee4:	e59f3010 	ldr	r3, [pc, #16]	; 50000efc <success_k3+0x84>
50000ee8:	e5835000 	str	r5, [r3]
50000eec:	e59f300c 	ldr	r3, [pc, #12]	; 50000f00 <success_k3+0x88>
50000ef0:	e5832000 	str	r2, [r3]
50000ef4:	e8bd8070 	pop	{r4, r5, r6, pc}
50000ef8:	7f008000 	svcvc	0x00008000
50000efc:	50000fa8 	andpl	r0, r0, r8, lsr #31
50000f00:	50000fb0 	undefined instruction 0x50000fb0

50000f04 <work_mode>:
50000f04:	e92d4008 	push	{r3, lr}
50000f08:	ebfffe06 	bl	50000728 <allClose>
50000f0c:	e59f3030 	ldr	r3, [pc, #48]	; 50000f44 <work_mode+0x40>
50000f10:	e5933000 	ldr	r3, [r3]
50000f14:	e3530002 	cmp	r3, #2
50000f18:	0a000005 	beq	50000f34 <work_mode+0x30>
50000f1c:	e3530003 	cmp	r3, #3
50000f20:	0a000005 	beq	50000f3c <work_mode+0x38>
50000f24:	e3530001 	cmp	r3, #1
50000f28:	18bd8008 	popne	{r3, pc}
50000f2c:	ebfffe0a 	bl	5000075c <k1>
50000f30:	eafffffd 	b	50000f2c <work_mode+0x28>
50000f34:	ebfffe92 	bl	50000984 <k2>
50000f38:	eafffffd 	b	50000f34 <work_mode+0x30>
50000f3c:	ebffff14 	bl	50000b94 <k3>
50000f40:	eafffffd 	b	50000f3c <work_mode+0x38>
50000f44:	50000fb0 	undefined instruction 0x50000fb0

50000f48 <main>:
50000f48:	e92d4008 	push	{r3, lr}
50000f4c:	e59f300c 	ldr	r3, [pc, #12]	; 50000f60 <main+0x18>
50000f50:	e3a02002 	mov	r2, #2
50000f54:	e5832000 	str	r2, [r3]
50000f58:	ebffffe9 	bl	50000f04 <work_mode>
50000f5c:	eafffffe 	b	50000f5c <main+0x14>
50000f60:	50000fb0 	undefined instruction 0x50000fb0

50000f64 <set_mode>:
50000f64:	e92d4010 	push	{r4, lr}
50000f68:	ebfffdee 	bl	50000728 <allClose>
50000f6c:	e59f4030 	ldr	r4, [pc, #48]	; 50000fa4 <set_mode+0x40>
50000f70:	e5943000 	ldr	r3, [r4]
50000f74:	e3530002 	cmp	r3, #2
50000f78:	0a000005 	beq	50000f94 <set_mode+0x30>
50000f7c:	e3530003 	cmp	r3, #3
50000f80:	0a000005 	beq	50000f9c <set_mode+0x38>
50000f84:	e3530001 	cmp	r3, #1
50000f88:	1afffff9 	bne	50000f74 <set_mode+0x10>
50000f8c:	ebffff84 	bl	50000da4 <success_k1>
50000f90:	eafffff6 	b	50000f70 <set_mode+0xc>
50000f94:	ebffff99 	bl	50000e00 <success_k2>
50000f98:	eafffff4 	b	50000f70 <set_mode+0xc>
50000f9c:	ebffffb5 	bl	50000e78 <success_k3>
50000fa0:	eafffff2 	b	50000f70 <set_mode+0xc>
50000fa4:	50000fa8 	andpl	r0, r0, r8, lsr #31

Disassembly of section .bss:

50000fa8 <key_flag>:
50000fa8:	00000000 	andeq	r0, r0, r0

50000fac <time>:
50000fac:	00000000 	andeq	r0, r0, r0

50000fb0 <mode>:
50000fb0:	00000000 	andeq	r0, r0, r0

Disassembly of section .comment:

00000000 <.comment>:
   0:	3a434347 	bcc	10d0d24 <_start-0x4ef2f2dc>
   4:	74632820 	strbtvc	r2, [r3], #-2080	; 0x820
   8:	312d676e 	teqcc	sp, lr, ror #14
   c:	312e382e 	teqcc	lr, lr, lsr #16
  10:	2941462d 	stmdbcs	r1, {r0, r2, r3, r5, r9, sl, lr}^
  14:	352e3420 	strcc	r3, [lr, #-1056]!	; 0x420
  18:	Address 0x00000018 is out of bounds.


Disassembly of section .ARM.attributes:

00000000 <.ARM.attributes>:
   0:	00003341 	andeq	r3, r0, r1, asr #6
   4:	61656100 	cmnvs	r5, r0, lsl #2
   8:	01006962 	tsteq	r0, r2, ror #18
   c:	00000029 	andeq	r0, r0, r9, lsr #32
  10:	4d524105 	ldfmie	f4, [r2, #-20]	; 0xffffffec
  14:	36373131 	undefined instruction 0x36373131
  18:	2d465a4a 	vstrcs	s11, [r6, #-296]	; 0xfffffed8
  1c:	09060053 	stmdbeq	r6, {r0, r1, r4, r6}
  20:	01090108 	tsteq	r9, r8, lsl #2
  24:	0412020a 	ldreq	r0, [r2], #-522	; 0x20a
  28:	01150114 	tsteq	r5, r4, lsl r1
  2c:	01180317 	tsteq	r8, r7, lsl r3
  30:	031b021a 	tsteq	fp, #-1610612735	; 0xa0000001
